; ModuleID = '8/73.c'
source_filename = "8/73.c"
target datalayout = "e-m:e-p270:32:32-p271:32:32-p272:64:64-i64:64-f80:128-n8:16:32:64-S128"
target triple = "x86_64-pc-linux-gnu"

@.str = private unnamed_addr constant [5 x i8] c"%d%d\00", align 1
@.str.1 = private unnamed_addr constant [3 x i8] c"%d\00", align 1
@.str.2 = private unnamed_addr constant [4 x i8] c"%d \00", align 1

; Function Attrs: noinline nounwind uwtable
define dso_local void @main() #0 {
  %1 = alloca i32, align 4
  %2 = alloca i32, align 4
  %3 = alloca i32, align 4
  %4 = alloca i32, align 4
  %5 = alloca i32, align 4
  %6 = alloca [100 x i32], align 16
  %7 = alloca [100 x i32], align 16
  %8 = call i32 (i8*, ...) @__isoc99_scanf(i8* getelementptr inbounds ([5 x i8], [5 x i8]* @.str, i64 0, i64 0), i32* %1, i32* %2)
  store i32 0, i32* %3, align 4
  br label %9

9:                                                ; preds = %18, %0
  %10 = load i32, i32* %3, align 4
  %11 = load i32, i32* %1, align 4
  %12 = icmp slt i32 %10, %11
  br i1 %12, label %13, label %21

13:                                               ; preds = %9
  %14 = load i32, i32* %3, align 4
  %15 = sext i32 %14 to i64
  %16 = getelementptr inbounds [100 x i32], [100 x i32]* %6, i64 0, i64 %15
  %17 = call i32 (i8*, ...) @__isoc99_scanf(i8* getelementptr inbounds ([3 x i8], [3 x i8]* @.str.1, i64 0, i64 0), i32* %16)
  br label %18

18:                                               ; preds = %13
  %19 = load i32, i32* %3, align 4
  %20 = add nsw i32 %19, 1
  store i32 %20, i32* %3, align 4
  br label %9

21:                                               ; preds = %9
  store i32 0, i32* %3, align 4
  br label %22

22:                                               ; preds = %31, %21
  %23 = load i32, i32* %3, align 4
  %24 = load i32, i32* %2, align 4
  %25 = icmp slt i32 %23, %24
  br i1 %25, label %26, label %34

26:                                               ; preds = %22
  %27 = load i32, i32* %3, align 4
  %28 = sext i32 %27 to i64
  %29 = getelementptr inbounds [100 x i32], [100 x i32]* %7, i64 0, i64 %28
  %30 = call i32 (i8*, ...) @__isoc99_scanf(i8* getelementptr inbounds ([3 x i8], [3 x i8]* @.str.1, i64 0, i64 0), i32* %29)
  br label %31

31:                                               ; preds = %26
  %32 = load i32, i32* %3, align 4
  %33 = add nsw i32 %32, 1
  store i32 %33, i32* %3, align 4
  br label %22

34:                                               ; preds = %22
  store i32 0, i32* %4, align 4
  br label %35

35:                                               ; preds = %82, %34
  %36 = load i32, i32* %4, align 4
  %37 = load i32, i32* %1, align 4
  %38 = sub nsw i32 %37, 1
  %39 = icmp sle i32 %36, %38
  br i1 %39, label %40, label %85

40:                                               ; preds = %35
  store i32 0, i32* %3, align 4
  br label %41

41:                                               ; preds = %78, %40
  %42 = load i32, i32* %3, align 4
  %43 = load i32, i32* %1, align 4
  %44 = load i32, i32* %4, align 4
  %45 = sub nsw i32 %43, %44
  %46 = sub nsw i32 %45, 1
  %47 = icmp slt i32 %42, %46
  br i1 %47, label %48, label %81

48:                                               ; preds = %41
  %49 = load i32, i32* %3, align 4
  %50 = sext i32 %49 to i64
  %51 = getelementptr inbounds [100 x i32], [100 x i32]* %6, i64 0, i64 %50
  %52 = load i32, i32* %51, align 4
  %53 = load i32, i32* %3, align 4
  %54 = add nsw i32 %53, 1
  %55 = sext i32 %54 to i64
  %56 = getelementptr inbounds [100 x i32], [100 x i32]* %6, i64 0, i64 %55
  %57 = load i32, i32* %56, align 4
  %58 = icmp sgt i32 %52, %57
  br i1 %58, label %59, label %77

59:                                               ; preds = %48
  %60 = load i32, i32* %3, align 4
  %61 = sext i32 %60 to i64
  %62 = getelementptr inbounds [100 x i32], [100 x i32]* %6, i64 0, i64 %61
  %63 = load i32, i32* %62, align 4
  store i32 %63, i32* %5, align 4
  %64 = load i32, i32* %3, align 4
  %65 = add nsw i32 %64, 1
  %66 = sext i32 %65 to i64
  %67 = getelementptr inbounds [100 x i32], [100 x i32]* %6, i64 0, i64 %66
  %68 = load i32, i32* %67, align 4
  %69 = load i32, i32* %3, align 4
  %70 = sext i32 %69 to i64
  %71 = getelementptr inbounds [100 x i32], [100 x i32]* %6, i64 0, i64 %70
  store i32 %68, i32* %71, align 4
  %72 = load i32, i32* %5, align 4
  %73 = load i32, i32* %3, align 4
  %74 = add nsw i32 %73, 1
  %75 = sext i32 %74 to i64
  %76 = getelementptr inbounds [100 x i32], [100 x i32]* %6, i64 0, i64 %75
  store i32 %72, i32* %76, align 4
  br label %77

77:                                               ; preds = %59, %48
  br label %78

78:                                               ; preds = %77
  %79 = load i32, i32* %3, align 4
  %80 = add nsw i32 %79, 1
  store i32 %80, i32* %3, align 4
  br label %41

81:                                               ; preds = %41
  br label %82

82:                                               ; preds = %81
  %83 = load i32, i32* %4, align 4
  %84 = add nsw i32 %83, 1
  store i32 %84, i32* %4, align 4
  br label %35

85:                                               ; preds = %35
  store i32 0, i32* %4, align 4
  br label %86

86:                                               ; preds = %133, %85
  %87 = load i32, i32* %4, align 4
  %88 = load i32, i32* %2, align 4
  %89 = sub nsw i32 %88, 1
  %90 = icmp sle i32 %87, %89
  br i1 %90, label %91, label %136

91:                                               ; preds = %86
  store i32 0, i32* %3, align 4
  br label %92

92:                                               ; preds = %129, %91
  %93 = load i32, i32* %3, align 4
  %94 = load i32, i32* %2, align 4
  %95 = load i32, i32* %4, align 4
  %96 = sub nsw i32 %94, %95
  %97 = sub nsw i32 %96, 1
  %98 = icmp slt i32 %93, %97
  br i1 %98, label %99, label %132

99:                                               ; preds = %92
  %100 = load i32, i32* %3, align 4
  %101 = sext i32 %100 to i64
  %102 = getelementptr inbounds [100 x i32], [100 x i32]* %7, i64 0, i64 %101
  %103 = load i32, i32* %102, align 4
  %104 = load i32, i32* %3, align 4
  %105 = add nsw i32 %104, 1
  %106 = sext i32 %105 to i64
  %107 = getelementptr inbounds [100 x i32], [100 x i32]* %7, i64 0, i64 %106
  %108 = load i32, i32* %107, align 4
  %109 = icmp sgt i32 %103, %108
  br i1 %109, label %110, label %128

110:                                              ; preds = %99
  %111 = load i32, i32* %3, align 4
  %112 = sext i32 %111 to i64
  %113 = getelementptr inbounds [100 x i32], [100 x i32]* %7, i64 0, i64 %112
  %114 = load i32, i32* %113, align 4
  store i32 %114, i32* %5, align 4
  %115 = load i32, i32* %3, align 4
  %116 = add nsw i32 %115, 1
  %117 = sext i32 %116 to i64
  %118 = getelementptr inbounds [100 x i32], [100 x i32]* %7, i64 0, i64 %117
  %119 = load i32, i32* %118, align 4
  %120 = load i32, i32* %3, align 4
  %121 = sext i32 %120 to i64
  %122 = getelementptr inbounds [100 x i32], [100 x i32]* %7, i64 0, i64 %121
  store i32 %119, i32* %122, align 4
  %123 = load i32, i32* %5, align 4
  %124 = load i32, i32* %3, align 4
  %125 = add nsw i32 %124, 1
  %126 = sext i32 %125 to i64
  %127 = getelementptr inbounds [100 x i32], [100 x i32]* %7, i64 0, i64 %126
  store i32 %123, i32* %127, align 4
  br label %128

128:                                              ; preds = %110, %99
  br label %129

129:                                              ; preds = %128
  %130 = load i32, i32* %3, align 4
  %131 = add nsw i32 %130, 1
  store i32 %131, i32* %3, align 4
  br label %92

132:                                              ; preds = %92
  br label %133

133:                                              ; preds = %132
  %134 = load i32, i32* %4, align 4
  %135 = add nsw i32 %134, 1
  store i32 %135, i32* %4, align 4
  br label %86

136:                                              ; preds = %86
  store i32 0, i32* %3, align 4
  br label %137

137:                                              ; preds = %147, %136
  %138 = load i32, i32* %3, align 4
  %139 = load i32, i32* %1, align 4
  %140 = icmp slt i32 %138, %139
  br i1 %140, label %141, label %150

141:                                              ; preds = %137
  %142 = load i32, i32* %3, align 4
  %143 = sext i32 %142 to i64
  %144 = getelementptr inbounds [100 x i32], [100 x i32]* %6, i64 0, i64 %143
  %145 = load i32, i32* %144, align 4
  %146 = call i32 (i8*, ...) @printf(i8* getelementptr inbounds ([4 x i8], [4 x i8]* @.str.2, i64 0, i64 0), i32 %145)
  br label %147

147:                                              ; preds = %141
  %148 = load i32, i32* %3, align 4
  %149 = add nsw i32 %148, 1
  store i32 %149, i32* %3, align 4
  br label %137

150:                                              ; preds = %137
  store i32 0, i32* %3, align 4
  br label %151

151:                                              ; preds = %162, %150
  %152 = load i32, i32* %3, align 4
  %153 = load i32, i32* %2, align 4
  %154 = sub nsw i32 %153, 1
  %155 = icmp slt i32 %152, %154
  br i1 %155, label %156, label %165

156:                                              ; preds = %151
  %157 = load i32, i32* %3, align 4
  %158 = sext i32 %157 to i64
  %159 = getelementptr inbounds [100 x i32], [100 x i32]* %7, i64 0, i64 %158
  %160 = load i32, i32* %159, align 4
  %161 = call i32 (i8*, ...) @printf(i8* getelementptr inbounds ([4 x i8], [4 x i8]* @.str.2, i64 0, i64 0), i32 %160)
  br label %162

162:                                              ; preds = %156
  %163 = load i32, i32* %3, align 4
  %164 = add nsw i32 %163, 1
  store i32 %164, i32* %3, align 4
  br label %151

165:                                              ; preds = %151
  %166 = load i32, i32* %2, align 4
  %167 = sub nsw i32 %166, 1
  %168 = sext i32 %167 to i64
  %169 = getelementptr inbounds [100 x i32], [100 x i32]* %7, i64 0, i64 %168
  %170 = load i32, i32* %169, align 4
  %171 = call i32 (i8*, ...) @printf(i8* getelementptr inbounds ([3 x i8], [3 x i8]* @.str.1, i64 0, i64 0), i32 %170)
  ret void
}

declare dso_local i32 @__isoc99_scanf(i8*, ...) #1

declare dso_local i32 @printf(i8*, ...) #1


!llvm.module.flags = !{!0}
!llvm.ident = !{!1}

!0 = !{i32 1, !"wchar_size", i32 4}
!1 = !{!"clang version 10.0.0-4ubuntu1 "}
